; Function Attrs: nounwind uwtable
define zeroext range(i8 0, 2) i8 @l_Array_anyMUnsafe_any___at_Lake_Log_any___spec__1(ptr noundef %0, ptr noundef readonly captures(none) %1, i64 noundef %2, i64 noundef %3) local_unnamed_addr #1 {
  %.not41 = icmp eq i64 %2, %3
  br i1 %.not41, label %._crit_edge, label %.lr.ph

.lr.ph:                                           ; preds = %4
  %5 = getelementptr inbounds nuw i8, ptr %1, i64 24
  %6 = ptrtoint ptr %0 to i64
  %7 = and i64 %6, 1
  %.not39 = icmp eq i64 %7, 0
  br i1 %.not39, label %.lr.ph.split.us, label %.lr.ph.split

.lr.ph.split.us:                                  ; preds = %.lr.ph, %12
  %.01942.us = phi i64 [ %13, %12 ], [ %2, %.lr.ph ]
  %8 = getelementptr inbounds nuw [0 x ptr], ptr %5, i64 0, i64 %.01942.us
  %9 = load ptr, ptr %8, align 8, !tbaa !10
  %10 = ptrtoint ptr %9 to i64
  %11 = and i64 %10, 1
  %.not.i30.us = icmp eq i64 %11, 0
  br i1 %.not.i30.us, label %14, label %lean_array_uget.exit.us

12:                                               ; preds = %lean_dec.exit25.us
  %13 = add i64 %.01942.us, 1
  %.not.us = icmp eq i64 %13, %3
  br i1 %.not.us, label %._crit_edge.thread, label %.lr.ph.split.us

14:                                               ; preds = %.lr.ph.split.us
  %.val.i.i.us = load i32, ptr %9, align 4, !tbaa !4
  %15 = icmp sgt i32 %.val.i.i.us, 0
  br i1 %15, label %18, label %16, !prof !9

16:                                               ; preds = %14
  %.not.i.i.us = icmp eq i32 %.val.i.i.us, 0
  br i1 %.not.i.i.us, label %lean_array_uget.exit.us, label %17

17:                                               ; preds = %16
  tail call void @lean_inc_ref_cold(ptr noundef nonnull %9) #9
  br label %lean_array_uget.exit.us

18:                                               ; preds = %14
  %19 = add nuw i32 %.val.i.i.us, 1
  store i32 %19, ptr %9, align 4, !tbaa !4
  br label %lean_array_uget.exit.us

lean_array_uget.exit.us:                          ; preds = %18, %17, %16, %.lr.ph.split.us
  %.val.i.us = load i32, ptr %0, align 4, !tbaa !4
  %20 = icmp sgt i32 %.val.i.us, 0
  br i1 %20, label %23, label %21, !prof !9

21:                                               ; preds = %lean_array_uget.exit.us
  %.not.i31.us = icmp eq i32 %.val.i.us, 0
  br i1 %.not.i31.us, label %lean_inc.exit.us, label %22

22:                                               ; preds = %21
  tail call void @lean_inc_ref_cold(ptr noundef nonnull %0) #9
  br label %lean_inc.exit.us

23:                                               ; preds = %lean_array_uget.exit.us
  %24 = add nuw i32 %.val.i.us, 1
  store i32 %24, ptr %0, align 4, !tbaa !4
  br label %lean_inc.exit.us

lean_inc.exit.us:                                 ; preds = %23, %22, %21
  %25 = tail call ptr @lean_apply_1(ptr noundef nonnull %0, ptr noundef %9) #9
  %26 = ptrtoint ptr %25 to i64
  %27 = and i64 %26, 1
  %.not40.us = icmp eq i64 %27, 0
  br i1 %.not40.us, label %28, label %lean_dec.exit25.us

28:                                               ; preds = %lean_inc.exit.us
  %29 = load i32, ptr %25, align 4, !tbaa !4
  %30 = icmp sgt i32 %29, 1
  br i1 %30, label %33, label %31, !prof !9

31:                                               ; preds = %28
  %.not.i.us = icmp eq i32 %29, 0
  br i1 %.not.i.us, label %lean_dec.exit25.us, label %32

32:                                               ; preds = %31
  tail call void @lean_dec_ref_cold(ptr noundef nonnull %25) #9
  br label %lean_dec.exit25.us

33:                                               ; preds = %28
  %34 = add nsw i32 %29, -1
  store i32 %34, ptr %25, align 4, !tbaa !4
  br label %lean_dec.exit25.us

lean_dec.exit25.us:                               ; preds = %33, %32, %31, %lean_inc.exit.us
  %35 = and i64 %26, 510
  %36 = icmp eq i64 %35, 0
  br i1 %36, label %12, label %.critedge

37:                                               ; preds = %lean_dec.exit25
  %38 = add i64 %.01942, 1
  %.not = icmp eq i64 %38, %3
  br i1 %.not, label %.split.us, label %.lr.ph.split

.lr.ph.split:                                     ; preds = %.lr.ph, %37
  %.01942 = phi i64 [ %38, %37 ], [ %2, %.lr.ph ]
  %39 = getelementptr inbounds nuw [0 x ptr], ptr %5, i64 0, i64 %.01942
  %40 = load ptr, ptr %39, align 8, !tbaa !10
  %41 = ptrtoint ptr %40 to i64
  %42 = and i64 %41, 1
  %.not.i30 = icmp eq i64 %42, 0
  br i1 %.not.i30, label %43, label %lean_array_uget.exit

43:                                               ; preds = %.lr.ph.split
  %.val.i.i = load i32, ptr %40, align 4, !tbaa !4
  %44 = icmp sgt i32 %.val.i.i, 0
  br i1 %44, label %45, label %47, !prof !9

45:                                               ; preds = %43
  %46 = add nuw i32 %.val.i.i, 1
  store i32 %46, ptr %40, align 4, !tbaa !4
  br label %lean_array_uget.exit

47:                                               ; preds = %43
  %.not.i.i = icmp eq i32 %.val.i.i, 0
  br i1 %.not.i.i, label %lean_array_uget.exit, label %48

48:                                               ; preds = %47
  tail call void @lean_inc_ref_cold(ptr noundef nonnull %40) #9
  br label %lean_array_uget.exit

lean_array_uget.exit:                             ; preds = %.lr.ph.split, %45, %47, %48
  %49 = tail call ptr @lean_apply_1(ptr noundef %0, ptr noundef %40) #9
  %50 = ptrtoint ptr %49 to i64
  %51 = and i64 %50, 1
  %.not40 = icmp eq i64 %51, 0
  br i1 %.not40, label %52, label %lean_dec.exit25

52:                                               ; preds = %lean_array_uget.exit
  %53 = load i32, ptr %49, align 4, !tbaa !4
  %54 = icmp sgt i32 %53, 1
  br i1 %54, label %55, label %57, !prof !9

55:                                               ; preds = %52
  %56 = add nsw i32 %53, -1
  store i32 %56, ptr %49, align 4, !tbaa !4
  br label %lean_dec.exit25

57:                                               ; preds = %52
  %.not.i = icmp eq i32 %53, 0
  br i1 %.not.i, label %lean_dec.exit25, label %58

58:                                               ; preds = %57
  tail call void @lean_dec_ref_cold(ptr noundef nonnull %49) #9
  br label %lean_dec.exit25

lean_dec.exit25:                                  ; preds = %58, %57, %55, %lean_array_uget.exit
  %59 = and i64 %50, 510
  %60 = icmp eq i64 %59, 0
  br i1 %60, label %37, label %.split.us

.critedge:                                        ; preds = %lean_dec.exit25.us
  %61 = load i32, ptr %0, align 4, !tbaa !4
  %62 = icmp sgt i32 %61, 1
  br i1 %62, label %63, label %65, !prof !9

63:                                               ; preds = %.critedge
  %64 = add nsw i32 %61, -1
  store i32 %64, ptr %0, align 4, !tbaa !4
  br label %.split.us

65:                                               ; preds = %.critedge
  %.not.i26 = icmp eq i32 %61, 0
  br i1 %.not.i26, label %.split.us, label %66

66:                                               ; preds = %65
  tail call void @lean_dec_ref_cold(ptr noundef nonnull %0) #9
  br label %.split.us

._crit_edge:                                      ; preds = %4
  %.pre = ptrtoint ptr %0 to i64
  %.pre44 = and i64 %.pre, 1
  %67 = icmp eq i64 %.pre44, 0
  br i1 %67, label %._crit_edge.thread, label %.split.us

._crit_edge.thread:                               ; preds = %12, %._crit_edge
  %68 = load i32, ptr %0, align 4, !tbaa !4
  %69 = icmp sgt i32 %68, 1
  br i1 %69, label %70, label %72, !prof !9

70:                                               ; preds = %._crit_edge.thread
  %71 = add nsw i32 %68, -1
  store i32 %71, ptr %0, align 4, !tbaa !4
  br label %.split.us

72:                                               ; preds = %._crit_edge.thread
  %.not.i28 = icmp eq i32 %68, 0
  br i1 %.not.i28, label %.split.us, label %73

73:                                               ; preds = %72
  tail call void @lean_dec_ref_cold(ptr noundef nonnull %0) #9
  br label %.split.us

.split.us:                                        ; preds = %37, %lean_dec.exit25, %66, %65, %63, %73, %72, %70, %._crit_edge
  %.2.ph = phi i8 [ 0, %._crit_edge ], [ 0, %70 ], [ 0, %72 ], [ 0, %73 ], [ 1, %63 ], [ 1, %65 ], [ 1, %66 ], [ 0, %37 ], [ 1, %lean_dec.exit25 ]
  ret i8 %.2.ph
}